; ModuleID = '43/217.c'
source_filename = "43/217.c"
target datalayout = "e-m:e-p270:32:32-p271:32:32-p272:64:64-i64:64-f80:128-n8:16:32:64-S128"
target triple = "x86_64-pc-linux-gnu"

@.str = private unnamed_addr constant [3 x i8] c"%d\00", align 1
@.str.1 = private unnamed_addr constant [7 x i8] c"%d %d\0A\00", align 1

; Function Attrs: noinline nounwind uwtable
define dso_local void @main() #0 {
  %1 = alloca i32, align 4
  %2 = alloca i32, align 4
  %3 = alloca i32, align 4
  %4 = alloca i32, align 4
  %5 = call i32 (i8*, ...) @__isoc99_scanf(i8* getelementptr inbounds ([3 x i8], [3 x i8]* @.str, i64 0, i64 0), i32* %1)
  store i32 3, i32* %2, align 4
  br label %6

6:                                                ; preds = %71, %0
  %7 = load i32, i32* %2, align 4
  %8 = load i32, i32* %1, align 4
  %9 = sdiv i32 %8, 2
  %10 = icmp sle i32 %7, %9
  br i1 %10, label %11, label %74

11:                                               ; preds = %6
  store i32 2, i32* %3, align 4
  br label %12

12:                                               ; preds = %26, %11
  %13 = load i32, i32* %3, align 4
  %14 = sitofp i32 %13 to double
  %15 = load i32, i32* %2, align 4
  %16 = sitofp i32 %15 to double
  %17 = call double @sqrt(double %16) #3
  %18 = fcmp ole double %14, %17
  br i1 %18, label %19, label %29

19:                                               ; preds = %12
  %20 = load i32, i32* %2, align 4
  %21 = load i32, i32* %3, align 4
  %22 = srem i32 %20, %21
  %23 = icmp eq i32 %22, 0
  br i1 %23, label %24, label %25

24:                                               ; preds = %19
  br label %29

25:                                               ; preds = %19
  br label %26

26:                                               ; preds = %25
  %27 = load i32, i32* %3, align 4
  %28 = add nsw i32 %27, 1
  store i32 %28, i32* %3, align 4
  br label %12

29:                                               ; preds = %24, %12
  %30 = load i32, i32* %3, align 4
  %31 = sitofp i32 %30 to double
  %32 = load i32, i32* %2, align 4
  %33 = sitofp i32 %32 to double
  %34 = call double @sqrt(double %33) #3
  %35 = fcmp ogt double %31, %34
  br i1 %35, label %36, label %40

36:                                               ; preds = %29
  %37 = load i32, i32* %1, align 4
  %38 = load i32, i32* %2, align 4
  %39 = sub nsw i32 %37, %38
  store i32 %39, i32* %4, align 4
  br label %41

40:                                               ; preds = %29
  br label %71

41:                                               ; preds = %36
  store i32 2, i32* %3, align 4
  br label %42

42:                                               ; preds = %56, %41
  %43 = load i32, i32* %3, align 4
  %44 = sitofp i32 %43 to double
  %45 = load i32, i32* %4, align 4
  %46 = sitofp i32 %45 to double
  %47 = call double @sqrt(double %46) #3
  %48 = fcmp ole double %44, %47
  br i1 %48, label %49, label %59

49:                                               ; preds = %42
  %50 = load i32, i32* %4, align 4
  %51 = load i32, i32* %3, align 4
  %52 = srem i32 %50, %51
  %53 = icmp eq i32 %52, 0
  br i1 %53, label %54, label %55

54:                                               ; preds = %49
  br label %59

55:                                               ; preds = %49
  br label %56

56:                                               ; preds = %55
  %57 = load i32, i32* %3, align 4
  %58 = add nsw i32 %57, 1
  store i32 %58, i32* %3, align 4
  br label %42

59:                                               ; preds = %54, %42
  %60 = load i32, i32* %3, align 4
  %61 = sitofp i32 %60 to double
  %62 = load i32, i32* %4, align 4
  %63 = sitofp i32 %62 to double
  %64 = call double @sqrt(double %63) #3
  %65 = fcmp ogt double %61, %64
  br i1 %65, label %66, label %70

66:                                               ; preds = %59
  %67 = load i32, i32* %2, align 4
  %68 = load i32, i32* %4, align 4
  %69 = call i32 (i8*, ...) @printf(i8* getelementptr inbounds ([7 x i8], [7 x i8]* @.str.1, i64 0, i64 0), i32 %67, i32 %68)
  br label %70

70:                                               ; preds = %66, %59
  br label %71

71:                                               ; preds = %70, %40
  %72 = load i32, i32* %2, align 4
  %73 = add nsw i32 %72, 2
  store i32 %73, i32* %2, align 4
  br label %6

74:                                               ; preds = %6
  ret void
}

declare dso_local i32 @__isoc99_scanf(i8*, ...) #1

; Function Attrs: nounwind
declare dso_local double @sqrt(double) #2

declare dso_local i32 @printf(i8*, ...) #1


!llvm.module.flags = !{!0}
!llvm.ident = !{!1}

!0 = !{i32 1, !"wchar_size", i32 4}
!1 = !{!"clang version 10.0.0-4ubuntu1 "}
